target datalayout = "e-m:e-p270:32:32-p271:32:32-p272:64:64-i64:64-i128:128-f80:128-n8:16:32:64-S128"
target triple = "x86_64-pc-linux-gnu"

%struct.x509err2alert_st = type { i32, i32 }

; Function Attrs: nounwind uwtable
define i32 @ssl_x509err2alert(i32 noundef %0) #0 {
  %2 = alloca i32, align 4
  %3 = alloca ptr, align 8
  store i32 %0, ptr %2, align 4, !tbaa !85
  call void @llvm.lifetime.start.p0(i64 8, ptr %3) #9
  store ptr @x509table, ptr %3, align 8, !tbaa !243
  br label %4

4:                                                ; preds = %17, %1
  %5 = load ptr, ptr %3, align 8, !tbaa !243
  %6 = getelementptr inbounds nuw %struct.x509err2alert_st, ptr %5, i32 0, i32 0
  %7 = load i32, ptr %6, align 4, !tbaa !245
  %8 = icmp ne i32 %7, 0
  br i1 %8, label %9, label %20

9:                                                ; preds = %4
  %10 = load ptr, ptr %3, align 8, !tbaa !243
  %11 = getelementptr inbounds nuw %struct.x509err2alert_st, ptr %10, i32 0, i32 0
  %12 = load i32, ptr %11, align 4, !tbaa !245
  %13 = load i32, ptr %2, align 4, !tbaa !85
  %14 = icmp eq i32 %12, %13
  br i1 %14, label %15, label %16

15:                                               ; preds = %9
  br label %20

16:                                               ; preds = %9
  br label %17

17:                                               ; preds = %16
  %18 = load ptr, ptr %3, align 8, !tbaa !243
  %19 = getelementptr inbounds nuw %struct.x509err2alert_st, ptr %18, i32 1
  store ptr %19, ptr %3, align 8, !tbaa !243
  br label %4, !llvm.loop !247

20:                                               ; preds = %15, %4
  %21 = load ptr, ptr %3, align 8, !tbaa !243
  %22 = getelementptr inbounds nuw %struct.x509err2alert_st, ptr %21, i32 0, i32 1
  %23 = load i32, ptr %22, align 4, !tbaa !248
  call void @llvm.lifetime.end.p0(i64 8, ptr %3) #9
  ret i32 %23
}