; Function Attrs: nofree norecurse nosync nounwind memory(none) uwtable
define i32 @ssl_x509err2alert(i32 noundef %0) local_unnamed_addr #6 {
  br label %2

2:                                                ; preds = %2, %1
  %.0 = phi ptr [ @x509table, %1 ], [ %5, %2 ]
  %3 = load i32, ptr %.0, align 4, !tbaa !210
  %.not = icmp eq i32 %3, 0
  %4 = icmp eq i32 %3, %0
  %or.cond = or i1 %.not, %4
  %5 = getelementptr inbounds nuw i8, ptr %.0, i64 8
  br i1 %or.cond, label %6, label %2, !llvm.loop !212

6:                                                ; preds = %2
  %7 = getelementptr inbounds nuw i8, ptr %.0, i64 4
  %8 = load i32, ptr %7, align 4, !tbaa !213
  ret i32 %8
}